target datalayout = "e-m:e-p270:32:32-p271:32:32-p272:64:64-i64:64-i128:128-f80:128-n8:16:32:64-S128"
target triple = "x86_64-pc-linux-gnu"

%"struct.std::_List_iterator" = type { ptr }
%"class.base::BasicStringPiece" = type { ptr, i64 }
%"class.net::SpdyHeaderBlock::StringPieceProxy" = type <{ ptr, ptr, %"struct.std::_List_iterator", %"class.base::BasicStringPiece", i8, [7 x i8] }>

; Function Attrs: mustprogress nounwind uwtable
define noundef nonnull align 8 dereferenceable(41) ptr @_ZN3net15SpdyHeaderBlock16StringPieceProxyaSEOS1_(ptr noundef nonnull align 8 dereferenceable(41) %0, ptr noundef nonnull align 8 dereferenceable(41) %1) #0 align 2 {
  %3 = alloca ptr, align 8
  %4 = alloca ptr, align 8
  store ptr %0, ptr %3, align 8, !tbaa !3
  store ptr %1, ptr %4, align 8, !tbaa !3
  %5 = load ptr, ptr %3, align 8
  %6 = load ptr, ptr %4, align 8, !tbaa !3
  %7 = getelementptr inbounds nuw %"class.net::SpdyHeaderBlock::StringPieceProxy", ptr %6, i32 0, i32 0
  %8 = load ptr, ptr %7, align 8, !tbaa !12
  %9 = getelementptr inbounds nuw %"class.net::SpdyHeaderBlock::StringPieceProxy", ptr %5, i32 0, i32 0
  store ptr %8, ptr %9, align 8, !tbaa !12
  %10 = load ptr, ptr %4, align 8, !tbaa !3
  %11 = getelementptr inbounds nuw %"class.net::SpdyHeaderBlock::StringPieceProxy", ptr %10, i32 0, i32 1
  %12 = load ptr, ptr %11, align 8, !tbaa !20
  %13 = getelementptr inbounds nuw %"class.net::SpdyHeaderBlock::StringPieceProxy", ptr %5, i32 0, i32 1
  store ptr %12, ptr %13, align 8, !tbaa !20
  %14 = load ptr, ptr %4, align 8, !tbaa !3
  %15 = getelementptr inbounds nuw %"class.net::SpdyHeaderBlock::StringPieceProxy", ptr %14, i32 0, i32 2
  %16 = getelementptr inbounds nuw %"class.net::SpdyHeaderBlock::StringPieceProxy", ptr %5, i32 0, i32 2
  call void @llvm.memcpy.p0.p0.i64(ptr align 8 %16, ptr align 8 %15, i64 8, i1 false), !tbaa.struct !21
  %17 = load ptr, ptr %4, align 8, !tbaa !3
  %18 = getelementptr inbounds nuw %"class.net::SpdyHeaderBlock::StringPieceProxy", ptr %17, i32 0, i32 3
  %19 = getelementptr inbounds nuw %"class.net::SpdyHeaderBlock::StringPieceProxy", ptr %5, i32 0, i32 3
  call void @llvm.memcpy.p0.p0.i64(ptr align 8 %19, ptr align 8 %18, i64 16, i1 false), !tbaa.struct !23
  %20 = getelementptr inbounds nuw %"class.net::SpdyHeaderBlock::StringPieceProxy", ptr %5, i32 0, i32 4
  store i8 1, ptr %20, align 8, !tbaa !26
  %21 = load ptr, ptr %4, align 8, !tbaa !3
  %22 = getelementptr inbounds nuw %"class.net::SpdyHeaderBlock::StringPieceProxy", ptr %21, i32 0, i32 4
  store i8 0, ptr %22, align 8, !tbaa !26
  ret ptr %5
}