; Function Attrs: mustprogress nofree norecurse nosync nounwind willreturn memory(argmem: readwrite) uwtable
define noundef nonnull align 8 dereferenceable(41) ptr @_ZN3net15SpdyHeaderBlock16StringPieceProxyaSEOS1_(ptr noundef nonnull returned writeonly align 8 captures(ret: address, provenance) dereferenceable(41) initializes((0, 41)) %0, ptr noundef nonnull align 8 captures(none) dereferenceable(41) initializes((40, 41)) %1) local_unnamed_addr #2 align 2 {
  %3 = load ptr, ptr %1, align 8, !tbaa !3
  store ptr %3, ptr %0, align 8, !tbaa !3
  %4 = getelementptr inbounds nuw i8, ptr %1, i64 8
  %5 = load ptr, ptr %4, align 8, !tbaa !16
  %6 = getelementptr inbounds nuw i8, ptr %0, i64 8
  store ptr %5, ptr %6, align 8, !tbaa !16
  %7 = getelementptr inbounds nuw i8, ptr %1, i64 16
  %8 = getelementptr inbounds nuw i8, ptr %0, i64 16
  %9 = load i64, ptr %7, align 8, !tbaa !17
  store i64 %9, ptr %8, align 8, !tbaa !17
  %10 = getelementptr inbounds nuw i8, ptr %1, i64 24
  %11 = getelementptr inbounds nuw i8, ptr %0, i64 24
  tail call void @llvm.memcpy.p0.p0.i64(ptr noundef nonnull align 8 dereferenceable(16) %11, ptr noundef nonnull align 8 dereferenceable(16) %10, i64 16, i1 false), !tbaa.struct !21
  %12 = getelementptr inbounds nuw i8, ptr %0, i64 40
  store i8 1, ptr %12, align 8, !tbaa !20
  %13 = getelementptr inbounds nuw i8, ptr %1, i64 40
  store i8 0, ptr %13, align 8, !tbaa !20
  ret ptr %0
}